target datalayout = "e-m:e-p270:32:32-p271:32:32-p272:64:64-i64:64-i128:128-f80:128-n8:16:32:64-S128"
target triple = "x86_64-pc-linux-gnu"

%struct.triangles_t = type { ptr, i64, i64, i64 }
%struct.triangle_t = type { i32, [3 x %struct.tedge_t] }
%struct.tedge_t = type { ptr, ptr, i64 }

@stderr = external global ptr, align 8
@.str = private unnamed_addr constant [24 x i8] c"lib/pathplan/%s:%d: %s\0A\00", align 1
@.str.1 = private unnamed_addr constant [119 x i8] c"generated/home/dtcxzyw/WorkSpace/Projects/compilers/llvm-opt-benchmark/bench/graphviz/graphviz/lib/pathplan/shortest.c\00", align 1
@tris = internal global %struct.triangles_t zeroinitializer, align 8
@.str.9 = private unnamed_addr constant [20 x i8] c"cannot realloc tris\00", align 1

; Function Attrs: inlinehint nounwind uwtable
define internal i32 @triangles_try_append(ptr noundef %0, ptr noundef byval(%struct.triangle_t) align 8 %1) #4 {
  %3 = alloca i32, align 4
  %4 = alloca ptr, align 8
  %5 = alloca i64, align 8
  %6 = alloca i32, align 4
  %7 = alloca ptr, align 8
  %8 = alloca i64, align 8
  %9 = alloca i64, align 8
  %10 = alloca i64, align 8
  store ptr %0, ptr %4, align 8, !tbaa !59
  %11 = load ptr, ptr %4, align 8, !tbaa !59
  %12 = getelementptr inbounds nuw %struct.triangles_t, ptr %11, i32 0, i32 2
  %13 = load i64, ptr %12, align 8, !tbaa !60
  %14 = load ptr, ptr %4, align 8, !tbaa !59
  %15 = getelementptr inbounds nuw %struct.triangles_t, ptr %14, i32 0, i32 3
  %16 = load i64, ptr %15, align 8, !tbaa !73
  %17 = icmp eq i64 %13, %16
  br i1 %17, label %18, label %112

18:                                               ; preds = %2
  call void @llvm.lifetime.start.p0(i64 8, ptr %5) #9
  %19 = load ptr, ptr %4, align 8, !tbaa !59
  %20 = getelementptr inbounds nuw %struct.triangles_t, ptr %19, i32 0, i32 3
  %21 = load i64, ptr %20, align 8, !tbaa !73
  %22 = icmp eq i64 %21, 0
  br i1 %22, label %23, label %24

23:                                               ; preds = %18
  br label %29

24:                                               ; preds = %18
  %25 = load ptr, ptr %4, align 8, !tbaa !59
  %26 = getelementptr inbounds nuw %struct.triangles_t, ptr %25, i32 0, i32 3
  %27 = load i64, ptr %26, align 8, !tbaa !73
  %28 = mul i64 %27, 2
  br label %29

29:                                               ; preds = %24, %23
  %30 = phi i64 [ 1, %23 ], [ %28, %24 ]
  store i64 %30, ptr %5, align 8, !tbaa !19
  %31 = load i64, ptr %5, align 8, !tbaa !19
  %32 = udiv i64 -1, %31
  %33 = icmp ult i64 %32, 80
  br i1 %33, label %34, label %35

34:                                               ; preds = %29
  store i32 34, ptr %3, align 4
  store i32 1, ptr %6, align 4
  br label %109

35:                                               ; preds = %29
  call void @llvm.lifetime.start.p0(i64 8, ptr %7) #9
  %36 = load ptr, ptr %4, align 8, !tbaa !59
  %37 = getelementptr inbounds nuw %struct.triangles_t, ptr %36, i32 0, i32 0
  %38 = load ptr, ptr %37, align 8, !tbaa !72
  %39 = load i64, ptr %5, align 8, !tbaa !19
  %40 = mul i64 %39, 80
  %41 = call ptr @realloc(ptr noundef %38, i64 noundef %40) #11
  store ptr %41, ptr %7, align 8, !tbaa !44
  %42 = load ptr, ptr %7, align 8, !tbaa !44
  %43 = icmp eq ptr %42, null
  br i1 %43, label %44, label %45

44:                                               ; preds = %35
  store i32 12, ptr %3, align 4
  store i32 1, ptr %6, align 4
  br label %108

45:                                               ; preds = %35
  %46 = load ptr, ptr %7, align 8, !tbaa !44
  %47 = load ptr, ptr %4, align 8, !tbaa !59
  %48 = getelementptr inbounds nuw %struct.triangles_t, ptr %47, i32 0, i32 3
  %49 = load i64, ptr %48, align 8, !tbaa !73
  %50 = getelementptr inbounds nuw %struct.triangle_t, ptr %46, i64 %49
  %51 = load i64, ptr %5, align 8, !tbaa !19
  %52 = load ptr, ptr %4, align 8, !tbaa !59
  %53 = getelementptr inbounds nuw %struct.triangles_t, ptr %52, i32 0, i32 3
  %54 = load i64, ptr %53, align 8, !tbaa !73
  %55 = sub i64 %51, %54
  %56 = mul i64 %55, 80
  call void @llvm.memset.p0.i64(ptr align 8 %50, i8 0, i64 %56, i1 false)
  br label %57

57:                                               ; preds = %45
  br label %58

58:                                               ; preds = %57
  br label %59

59:                                               ; preds = %58
  %60 = load ptr, ptr %4, align 8, !tbaa !59
  %61 = getelementptr inbounds nuw %struct.triangles_t, ptr %60, i32 0, i32 1
  %62 = load i64, ptr %61, align 8, !tbaa !63
  %63 = load ptr, ptr %4, align 8, !tbaa !59
  %64 = getelementptr inbounds nuw %struct.triangles_t, ptr %63, i32 0, i32 2
  %65 = load i64, ptr %64, align 8, !tbaa !60
  %66 = add i64 %62, %65
  %67 = load ptr, ptr %4, align 8, !tbaa !59
  %68 = getelementptr inbounds nuw %struct.triangles_t, ptr %67, i32 0, i32 3
  %69 = load i64, ptr %68, align 8, !tbaa !73
  %70 = icmp ugt i64 %66, %69
  br i1 %70, label %71, label %101

71:                                               ; preds = %59
  call void @llvm.lifetime.start.p0(i64 8, ptr %8) #9
  %72 = load ptr, ptr %4, align 8, !tbaa !59
  %73 = getelementptr inbounds nuw %struct.triangles_t, ptr %72, i32 0, i32 3
  %74 = load i64, ptr %73, align 8, !tbaa !73
  %75 = load ptr, ptr %4, align 8, !tbaa !59
  %76 = getelementptr inbounds nuw %struct.triangles_t, ptr %75, i32 0, i32 1
  %77 = load i64, ptr %76, align 8, !tbaa !63
  %78 = sub i64 %74, %77
  store i64 %78, ptr %8, align 8, !tbaa !19
  call void @llvm.lifetime.start.p0(i64 8, ptr %9) #9
  %79 = load i64, ptr %5, align 8, !tbaa !19
  %80 = load i64, ptr %8, align 8, !tbaa !19
  %81 = sub i64 %79, %80
  store i64 %81, ptr %9, align 8, !tbaa !19
  br label %82

82:                                               ; preds = %71
  br label %83

83:                                               ; preds = %82
  br label %84

84:                                               ; preds = %83
  %85 = load ptr, ptr %7, align 8, !tbaa !44
  %86 = load i64, ptr %9, align 8, !tbaa !19
  %87 = getelementptr inbounds nuw %struct.triangle_t, ptr %85, i64 %86
  %88 = load ptr, ptr %7, align 8, !tbaa !44
  %89 = load ptr, ptr %4, align 8, !tbaa !59
  %90 = getelementptr inbounds nuw %struct.triangles_t, ptr %89, i32 0, i32 1
  %91 = load i64, ptr %90, align 8, !tbaa !63
  %92 = getelementptr inbounds nuw %struct.triangle_t, ptr %88, i64 %91
  %93 = load i64, ptr %8, align 8, !tbaa !19
  %94 = mul i64 %93, 80
  call void @llvm.memmove.p0.p0.i64(ptr align 8 %87, ptr align 8 %92, i64 %94, i1 false)
  br label %95

95:                                               ; preds = %84
  br label %96

96:                                               ; preds = %95
  br label %97

97:                                               ; preds = %96
  %98 = load i64, ptr %9, align 8, !tbaa !19
  %99 = load ptr, ptr %4, align 8, !tbaa !59
  %100 = getelementptr inbounds nuw %struct.triangles_t, ptr %99, i32 0, i32 1
  store i64 %98, ptr %100, align 8, !tbaa !63
  call void @llvm.lifetime.end.p0(i64 8, ptr %9) #9
  call void @llvm.lifetime.end.p0(i64 8, ptr %8) #9
  br label %101

101:                                              ; preds = %97, %59
  %102 = load ptr, ptr %7, align 8, !tbaa !44
  %103 = load ptr, ptr %4, align 8, !tbaa !59
  %104 = getelementptr inbounds nuw %struct.triangles_t, ptr %103, i32 0, i32 0
  store ptr %102, ptr %104, align 8, !tbaa !72
  %105 = load i64, ptr %5, align 8, !tbaa !19
  %106 = load ptr, ptr %4, align 8, !tbaa !59
  %107 = getelementptr inbounds nuw %struct.triangles_t, ptr %106, i32 0, i32 3
  store i64 %105, ptr %107, align 8, !tbaa !73
  store i32 0, ptr %6, align 4
  br label %108

108:                                              ; preds = %101, %44
  call void @llvm.lifetime.end.p0(i64 8, ptr %7) #9
  br label %109

109:                                              ; preds = %108, %34
  call void @llvm.lifetime.end.p0(i64 8, ptr %5) #9
  %110 = load i32, ptr %6, align 4
  switch i32 %110, label %138 [
    i32 0, label %111
    i32 1, label %136
  ]

111:                                              ; preds = %109
  br label %112

112:                                              ; preds = %111, %2
  call void @llvm.lifetime.start.p0(i64 8, ptr %10) #9
  %113 = load ptr, ptr %4, align 8, !tbaa !59
  %114 = getelementptr inbounds nuw %struct.triangles_t, ptr %113, i32 0, i32 1
  %115 = load i64, ptr %114, align 8, !tbaa !63
  %116 = load ptr, ptr %4, align 8, !tbaa !59
  %117 = getelementptr inbounds nuw %struct.triangles_t, ptr %116, i32 0, i32 2
  %118 = load i64, ptr %117, align 8, !tbaa !60
  %119 = add i64 %115, %118
  %120 = load ptr, ptr %4, align 8, !tbaa !59
  %121 = getelementptr inbounds nuw %struct.triangles_t, ptr %120, i32 0, i32 3
  %122 = load i64, ptr %121, align 8, !tbaa !73
  %123 = urem i64 %119, %122
  store i64 %123, ptr %10, align 8, !tbaa !19
  br label %124

124:                                              ; preds = %112
  br label %125

125:                                              ; preds = %124
  br label %126

126:                                              ; preds = %125
  %127 = load ptr, ptr %4, align 8, !tbaa !59
  %128 = getelementptr inbounds nuw %struct.triangles_t, ptr %127, i32 0, i32 0
  %129 = load ptr, ptr %128, align 8, !tbaa !72
  %130 = load i64, ptr %10, align 8, !tbaa !19
  %131 = getelementptr inbounds nuw %struct.triangle_t, ptr %129, i64 %130
  call void @llvm.memcpy.p0.p0.i64(ptr align 8 %131, ptr align 8 %1, i64 80, i1 false), !tbaa.struct !74
  %132 = load ptr, ptr %4, align 8, !tbaa !59
  %133 = getelementptr inbounds nuw %struct.triangles_t, ptr %132, i32 0, i32 2
  %134 = load i64, ptr %133, align 8, !tbaa !60
  %135 = add i64 %134, 1
  store i64 %135, ptr %133, align 8, !tbaa !60
  store i32 0, ptr %3, align 4
  store i32 1, ptr %6, align 4
  call void @llvm.lifetime.end.p0(i64 8, ptr %10) #9
  br label %136

136:                                              ; preds = %126, %109
  %137 = load i32, ptr %3, align 4
  ret i32 %137

138:                                              ; preds = %109
  unreachable
}

; Function Attrs: nounwind uwtable
define internal i32 @loadtriangle(ptr noundef %0, ptr noundef %1, ptr noundef %2) #0 {
  %4 = alloca i32, align 4
  %5 = alloca ptr, align 8
  %6 = alloca ptr, align 8
  %7 = alloca ptr, align 8
  %8 = alloca %struct.triangle_t, align 8
  %9 = alloca i32, align 4
  store ptr %0, ptr %5, align 8, !tbaa !13
  store ptr %1, ptr %6, align 8, !tbaa !13
  store ptr %2, ptr %7, align 8, !tbaa !13
  call void @llvm.lifetime.start.p0(i64 80, ptr %8) #9
  call void @llvm.memset.p0.i64(ptr align 8 %8, i8 0, i64 80, i1 false)
  %10 = load ptr, ptr %5, align 8, !tbaa !13
  %11 = getelementptr inbounds nuw %struct.triangle_t, ptr %8, i32 0, i32 1
  %12 = getelementptr inbounds [3 x %struct.tedge_t], ptr %11, i64 0, i64 0
  %13 = getelementptr inbounds nuw %struct.tedge_t, ptr %12, i32 0, i32 0
  store ptr %10, ptr %13, align 8, !tbaa !54
  %14 = load ptr, ptr %6, align 8, !tbaa !13
  %15 = getelementptr inbounds nuw %struct.triangle_t, ptr %8, i32 0, i32 1
  %16 = getelementptr inbounds [3 x %struct.tedge_t], ptr %15, i64 0, i64 0
  %17 = getelementptr inbounds nuw %struct.tedge_t, ptr %16, i32 0, i32 1
  store ptr %14, ptr %17, align 8, !tbaa !53
  %18 = getelementptr inbounds nuw %struct.triangle_t, ptr %8, i32 0, i32 1
  %19 = getelementptr inbounds [3 x %struct.tedge_t], ptr %18, i64 0, i64 0
  %20 = getelementptr inbounds nuw %struct.tedge_t, ptr %19, i32 0, i32 2
  store i64 -1, ptr %20, align 8, !tbaa !50
  %21 = load ptr, ptr %6, align 8, !tbaa !13
  %22 = getelementptr inbounds nuw %struct.triangle_t, ptr %8, i32 0, i32 1
  %23 = getelementptr inbounds [3 x %struct.tedge_t], ptr %22, i64 0, i64 1
  %24 = getelementptr inbounds nuw %struct.tedge_t, ptr %23, i32 0, i32 0
  store ptr %21, ptr %24, align 8, !tbaa !54
  %25 = load ptr, ptr %7, align 8, !tbaa !13
  %26 = getelementptr inbounds nuw %struct.triangle_t, ptr %8, i32 0, i32 1
  %27 = getelementptr inbounds [3 x %struct.tedge_t], ptr %26, i64 0, i64 1
  %28 = getelementptr inbounds nuw %struct.tedge_t, ptr %27, i32 0, i32 1
  store ptr %25, ptr %28, align 8, !tbaa !53
  %29 = getelementptr inbounds nuw %struct.triangle_t, ptr %8, i32 0, i32 1
  %30 = getelementptr inbounds [3 x %struct.tedge_t], ptr %29, i64 0, i64 1
  %31 = getelementptr inbounds nuw %struct.tedge_t, ptr %30, i32 0, i32 2
  store i64 -1, ptr %31, align 8, !tbaa !50
  %32 = load ptr, ptr %7, align 8, !tbaa !13
  %33 = getelementptr inbounds nuw %struct.triangle_t, ptr %8, i32 0, i32 1
  %34 = getelementptr inbounds [3 x %struct.tedge_t], ptr %33, i64 0, i64 2
  %35 = getelementptr inbounds nuw %struct.tedge_t, ptr %34, i32 0, i32 0
  store ptr %32, ptr %35, align 8, !tbaa !54
  %36 = load ptr, ptr %5, align 8, !tbaa !13
  %37 = getelementptr inbounds nuw %struct.triangle_t, ptr %8, i32 0, i32 1
  %38 = getelementptr inbounds [3 x %struct.tedge_t], ptr %37, i64 0, i64 2
  %39 = getelementptr inbounds nuw %struct.tedge_t, ptr %38, i32 0, i32 1
  store ptr %36, ptr %39, align 8, !tbaa !53
  %40 = getelementptr inbounds nuw %struct.triangle_t, ptr %8, i32 0, i32 1
  %41 = getelementptr inbounds [3 x %struct.tedge_t], ptr %40, i64 0, i64 2
  %42 = getelementptr inbounds nuw %struct.tedge_t, ptr %41, i32 0, i32 2
  store i64 -1, ptr %42, align 8, !tbaa !50
  %43 = call i32 @triangles_try_append(ptr noundef @tris, ptr noundef byval(%struct.triangle_t) align 8 %8)
  %44 = icmp ne i32 %43, 0
  br i1 %44, label %45, label %48

45:                                               ; preds = %3
  %46 = load ptr, ptr @stderr, align 8, !tbaa !15
  %47 = call i32 (ptr, ptr, ...) @fprintf(ptr noundef %46, ptr noundef @.str, ptr noundef @.str.1, i32 noundef 353, ptr noundef @.str.9) #9
  store i32 -1, ptr %4, align 4
  store i32 1, ptr %9, align 4
  br label %49

48:                                               ; preds = %3
  store i32 0, ptr %4, align 4
  store i32 1, ptr %9, align 4
  br label %49

49:                                               ; preds = %48, %45
  call void @llvm.lifetime.end.p0(i64 80, ptr %8) #9
  %50 = load i32, ptr %4, align 4
  ret i32 %50
}