; Function Attrs: nounwind uwtable
define internal fastcc range(i32 -1, 1) i32 @loadtriangle(ptr noundef %0, ptr noundef %1, ptr noundef %2) unnamed_addr #0 {
  %4 = load i64, ptr getelementptr inbounds nuw (i8, ptr @tris, i64 16), align 8, !tbaa !33
  %5 = load i64, ptr getelementptr inbounds nuw (i8, ptr @tris, i64 24), align 8, !tbaa !49
  %6 = icmp eq i64 %4, %5
  br i1 %6, label %7, label %._crit_edge.i

._crit_edge.i:                                    ; preds = %3
  %.pre.i = load i64, ptr getelementptr inbounds nuw (i8, ptr @tris, i64 8), align 8, !tbaa !48
  %.pre4.i = load ptr, ptr @tris, align 8, !tbaa !44
  br label %triangles_try_append.exit

7:                                                ; preds = %3
  %8 = icmp eq i64 %4, 0
  %9 = shl i64 %4, 1
  %spec.select.i = select i1 %8, i64 1, i64 %9
  %mul.ov.i = icmp ugt i64 %spec.select.i, 230584300921369395
  br i1 %mul.ov.i, label %40, label %10

10:                                               ; preds = %7
  %11 = load ptr, ptr @tris, align 8, !tbaa !44
  %12 = mul nuw i64 %spec.select.i, 80
  %13 = tail call ptr @realloc(ptr noundef %11, i64 noundef %12) #15
  %14 = icmp eq ptr %13, null
  br i1 %14, label %40, label %15

15:                                               ; preds = %10
  %16 = load i64, ptr getelementptr inbounds nuw (i8, ptr @tris, i64 24), align 8, !tbaa !49
  %17 = getelementptr inbounds nuw %struct.triangle_t, ptr %13, i64 %16
  %18 = sub i64 %spec.select.i, %16
  %19 = mul i64 %18, 80
  tail call void @llvm.memset.p0.i64(ptr nonnull align 8 %17, i8 0, i64 %19, i1 false)
  %20 = load i64, ptr getelementptr inbounds nuw (i8, ptr @tris, i64 8), align 8, !tbaa !48
  %21 = load i64, ptr getelementptr inbounds nuw (i8, ptr @tris, i64 16), align 8, !tbaa !33
  %22 = add i64 %21, %20
  %23 = icmp ugt i64 %22, %16
  br i1 %23, label %24, label %30

24:                                               ; preds = %15
  %25 = sub i64 %16, %20
  %26 = sub i64 %spec.select.i, %25
  %27 = getelementptr inbounds nuw %struct.triangle_t, ptr %13, i64 %26
  %28 = getelementptr inbounds nuw %struct.triangle_t, ptr %13, i64 %20
  %29 = mul i64 %25, 80
  tail call void @llvm.memmove.p0.p0.i64(ptr nonnull align 8 %27, ptr nonnull align 8 %28, i64 %29, i1 false)
  store i64 %26, ptr getelementptr inbounds nuw (i8, ptr @tris, i64 8), align 8, !tbaa !48
  br label %30

30:                                               ; preds = %24, %15
  %31 = phi i64 [ %20, %15 ], [ %26, %24 ]
  store ptr %13, ptr @tris, align 8, !tbaa !44
  store i64 %spec.select.i, ptr getelementptr inbounds nuw (i8, ptr @tris, i64 24), align 8, !tbaa !49
  br label %triangles_try_append.exit

triangles_try_append.exit:                        ; preds = %._crit_edge.i, %30
  %32 = phi ptr [ %.pre4.i, %._crit_edge.i ], [ %13, %30 ]
  %33 = phi i64 [ %5, %._crit_edge.i ], [ %spec.select.i, %30 ]
  %34 = phi i64 [ %4, %._crit_edge.i ], [ %21, %30 ]
  %35 = phi i64 [ %.pre.i, %._crit_edge.i ], [ %31, %30 ]
  %36 = add i64 %35, %34
  %37 = urem i64 %36, %33
  %38 = getelementptr inbounds nuw %struct.triangle_t, ptr %32, i64 %37
  store i64 0, ptr %38, align 8
  %.sroa.47.0..sroa_idx = getelementptr inbounds nuw i8, ptr %38, i64 8
  store ptr %0, ptr %.sroa.47.0..sroa_idx, align 8
  %.sroa.58.0..sroa_idx = getelementptr inbounds nuw i8, ptr %38, i64 16
  store ptr %1, ptr %.sroa.58.0..sroa_idx, align 8
  %.sroa.69.0..sroa_idx = getelementptr inbounds nuw i8, ptr %38, i64 24
  store i64 -1, ptr %.sroa.69.0..sroa_idx, align 8
  %.sroa.710.0..sroa_idx = getelementptr inbounds nuw i8, ptr %38, i64 32
  store ptr %1, ptr %.sroa.710.0..sroa_idx, align 8
  %.sroa.811.0..sroa_idx = getelementptr inbounds nuw i8, ptr %38, i64 40
  store ptr %2, ptr %.sroa.811.0..sroa_idx, align 8
  %.sroa.912.0..sroa_idx = getelementptr inbounds nuw i8, ptr %38, i64 48
  store i64 -1, ptr %.sroa.912.0..sroa_idx, align 8
  %.sroa.1013.0..sroa_idx = getelementptr inbounds nuw i8, ptr %38, i64 56
  store ptr %2, ptr %.sroa.1013.0..sroa_idx, align 8
  %.sroa.1114.0..sroa_idx = getelementptr inbounds nuw i8, ptr %38, i64 64
  store ptr %0, ptr %.sroa.1114.0..sroa_idx, align 8
  %.sroa.1215.0..sroa_idx = getelementptr inbounds nuw i8, ptr %38, i64 72
  store i64 -1, ptr %.sroa.1215.0..sroa_idx, align 8, !tbaa !53
  %39 = add i64 %34, 1
  store i64 %39, ptr getelementptr inbounds nuw (i8, ptr @tris, i64 16), align 8, !tbaa !33
  br label %43

40:                                               ; preds = %10, %7
  %41 = load ptr, ptr @stderr, align 8, !tbaa !10
  %42 = tail call i32 (ptr, ptr, ...) @fprintf(ptr noundef %41, ptr noundef nonnull @.str, ptr noundef nonnull @.str.1, i32 noundef 353, ptr noundef nonnull @.str.9) #14
  br label %43

43:                                               ; preds = %triangles_try_append.exit, %40
  %.0 = phi i32 [ -1, %40 ], [ 0, %triangles_try_append.exit ]
  ret i32 %.0
}